; Function Attrs: nofree norecurse nosync nounwind memory(read, argmem: readwrite, inaccessiblemem: none) uwtable
define hidden range(i32 0, 2) i32 @cmsMLUgetTranslation(ptr noundef readonly %0, ptr noundef readonly %1, ptr noundef readonly %2, ptr nocapture noundef writeonly %3, ptr nocapture noundef writeonly %4) local_unnamed_addr #4 {
  %6 = icmp eq ptr %1, null
  br i1 %6, label %strTo16.exit, label %7

7:                                                ; preds = %5
  %8 = load i8, ptr %1, align 1
  %9 = zext i8 %8 to i16
  %10 = shl nuw i16 %9, 8
  %11 = getelementptr inbounds i8, ptr %1, i64 1
  %12 = load i8, ptr %11, align 1
  %13 = zext i8 %12 to i16
  %14 = or disjoint i16 %10, %13
  br label %strTo16.exit

strTo16.exit:                                     ; preds = %5, %7
  %.0.i = phi i16 [ %14, %7 ], [ 0, %5 ]
  %15 = icmp eq ptr %2, null
  br i1 %15, label %strTo16.exit11, label %16

16:                                               ; preds = %strTo16.exit
  %17 = load i8, ptr %2, align 1
  %18 = zext i8 %17 to i16
  %19 = shl nuw i16 %18, 8
  %20 = getelementptr inbounds i8, ptr %2, i64 1
  %21 = load i8, ptr %20, align 1
  %22 = zext i8 %21 to i16
  %23 = or disjoint i16 %19, %22
  br label %strTo16.exit11

strTo16.exit11:                                   ; preds = %strTo16.exit, %16
  %.0.i10 = phi i16 [ %23, %16 ], [ 0, %strTo16.exit ]
  %24 = icmp eq ptr %0, null
  br i1 %24, label %_cmsMLUgetWide.exit.thread, label %25

25:                                               ; preds = %strTo16.exit11
  %26 = getelementptr inbounds i8, ptr %0, i64 8
  %27 = load i32, ptr %26, align 8
  %28 = icmp eq i32 %27, 0
  br i1 %28, label %_cmsMLUgetWide.exit.thread, label %.preheader.i

.preheader.i:                                     ; preds = %25
  %29 = getelementptr inbounds i8, ptr %0, i64 12
  %30 = load i32, ptr %29, align 4
  %.not61.i = icmp eq i32 %30, 0
  %.phi.trans.insert.i = getelementptr inbounds i8, ptr %0, i64 16
  %.pre.i = load ptr, ptr %.phi.trans.insert.i, align 8
  br i1 %.not61.i, label %._crit_edge.thread.i, label %.lr.ph.i

.lr.ph.i:                                         ; preds = %.preheader.i
  %wide.trip.count.i = zext i32 %30 to i64
  br label %31

31:                                               ; preds = %41, %.lr.ph.i
  %indvars.iv.i = phi i64 [ 0, %.lr.ph.i ], [ %indvars.iv.next.i, %41 ]
  %.060.i = phi i32 [ -1, %.lr.ph.i ], [ %.2.fr.i, %41 ]
  %32 = getelementptr inbounds %struct._cmsMLUentry, ptr %.pre.i, i64 %indvars.iv.i
  %33 = load i16, ptr %32, align 4
  %34 = icmp eq i16 %33, %.0.i
  br i1 %34, label %35, label %41

35:                                               ; preds = %31
  %36 = icmp eq i32 %.060.i, -1
  %37 = trunc nuw i64 %indvars.iv.i to i32
  %spec.select.i = select i1 %36, i32 %37, i32 %.060.i
  %38 = getelementptr inbounds i8, ptr %32, i64 2
  %39 = load i16, ptr %38, align 2
  %40 = icmp eq i16 %39, %.0.i10
  br i1 %40, label %_cmsMLUgetWide.exit, label %41

41:                                               ; preds = %35, %31
  %.2.i = phi i32 [ %spec.select.i, %35 ], [ %.060.i, %31 ]
  %.2.fr.i = freeze i32 %.2.i
  %indvars.iv.next.i = add nuw nsw i64 %indvars.iv.i, 1
  %exitcond.not.i = icmp eq i64 %indvars.iv.next.i, %wide.trip.count.i
  br i1 %exitcond.not.i, label %._crit_edge.i, label %31, !llvm.loop !12

._crit_edge.i:                                    ; preds = %41
  %42 = icmp eq i32 %.2.fr.i, -1
  %spec.select74.i = select i1 %42, i32 0, i32 %.2.fr.i
  %43 = sext i32 %spec.select74.i to i64
  br label %._crit_edge.thread.i

._crit_edge.thread.i:                             ; preds = %._crit_edge.i, %.preheader.i
  %44 = phi i64 [ 0, %.preheader.i ], [ %43, %._crit_edge.i ]
  %45 = getelementptr inbounds %struct._cmsMLUentry, ptr %.pre.i, i64 %44
  %.phi.trans.insert67.i = getelementptr inbounds i8, ptr %45, i64 8
  %.pre68.i = load i32, ptr %.phi.trans.insert67.i, align 4
  %46 = getelementptr inbounds i8, ptr %45, i64 4
  %47 = load i32, ptr %46, align 4
  %48 = add i32 %47, %.pre68.i
  %49 = getelementptr inbounds i8, ptr %0, i64 24
  %50 = load i32, ptr %49, align 8
  %51 = icmp ugt i32 %48, %50
  br i1 %51, label %_cmsMLUgetWide.exit.thread, label %52

52:                                               ; preds = %._crit_edge.thread.i
  %53 = getelementptr inbounds i8, ptr %45, i64 2
  %54 = load i16, ptr %53, align 2
  %55 = load i16, ptr %45, align 4
  br label %_cmsMLUgetWide.exit

_cmsMLUgetWide.exit:                              ; preds = %35, %52
  %.014 = phi i16 [ %55, %52 ], [ %.0.i, %35 ]
  %.013 = phi i16 [ %54, %52 ], [ %.0.i10, %35 ]
  %.sink.in = getelementptr inbounds i8, ptr %0, i64 32
  %.sink = load ptr, ptr %.sink.in, align 8
  %56 = icmp eq ptr %.sink, null
  br i1 %56, label %_cmsMLUgetWide.exit.thread, label %57

57:                                               ; preds = %_cmsMLUgetWide.exit
  %58 = lshr i16 %.014, 8
  %59 = trunc nuw i16 %58 to i8
  store i8 %59, ptr %3, align 1
  %60 = trunc i16 %.014 to i8
  %61 = getelementptr inbounds i8, ptr %3, i64 1
  store i8 %60, ptr %61, align 1
  %62 = getelementptr inbounds i8, ptr %3, i64 2
  store i8 0, ptr %62, align 1
  %63 = lshr i16 %.013, 8
  %64 = trunc nuw i16 %63 to i8
  store i8 %64, ptr %4, align 1
  %65 = trunc i16 %.013 to i8
  %66 = getelementptr inbounds i8, ptr %4, i64 1
  store i8 %65, ptr %66, align 1
  %67 = getelementptr inbounds i8, ptr %4, i64 2
  store i8 0, ptr %67, align 1
  br label %_cmsMLUgetWide.exit.thread

_cmsMLUgetWide.exit.thread:                       ; preds = %._crit_edge.thread.i, %25, %_cmsMLUgetWide.exit, %strTo16.exit11, %57
  %.0 = phi i32 [ 1, %57 ], [ 0, %strTo16.exit11 ], [ 0, %_cmsMLUgetWide.exit ], [ 0, %25 ], [ 0, %._crit_edge.thread.i ]
  ret i32 %.0
}